target datalayout = "e-m:e-p270:32:32-p271:32:32-p272:64:64-i64:64-i128:128-f80:128-n8:16:32:64-S128"
target triple = "x86_64-pc-linux-gnu"

%"class.Eigen::Matrix.213" = type { %"class.Eigen::PlainObjectBase.214" }
%"class.Eigen::PlainObjectBase.214" = type { %"class.Eigen::DenseStorage.221" }
%"class.Eigen::DenseStorage.221" = type { %"struct.Eigen::internal::plain_array.222" }
%"struct.Eigen::internal::plain_array.222" = type { [9 x double] }
%"struct.Eigen::CommaInitializer" = type { ptr, i64, i64, i64 }

; Function Attrs: mustprogress nounwind ssp uwtable
define linkonce_odr void @_ZN5Eigen8internal28check_static_allocation_sizeIdLi9EEEvv() #1 comdat {
  ret void
}

; Function Attrs: mustprogress ssp uwtable
define linkonce_odr void @_ZN5Eigen8internal11plain_arrayIdLi9ELi0ELi0EEC2Ev(ptr noundef nonnull align 8 dereferenceable(72) %0) unnamed_addr #3 comdat align 2 {
  %2 = alloca ptr, align 8
  store ptr %0, ptr %2, align 8, !tbaa !1088
  call void @_ZN5Eigen8internal28check_static_allocation_sizeIdLi9EEEvv()
  ret void
}

; Function Attrs: mustprogress nounwind ssp uwtable
define linkonce_odr void @_ZN5Eigen9DenseBaseINS_6MatrixIdLi3ELi3ELi0ELi3ELi3EEEEC2Ev(ptr noundef nonnull align 1 dereferenceable(1) %0) unnamed_addr #1 comdat align 2 {
  %2 = alloca ptr, align 8
  store ptr %0, ptr %2, align 8, !tbaa !1086
  ret void
}

; Function Attrs: mustprogress nounwind ssp uwtable
define linkonce_odr noundef i64 @_ZN5Eigen12DenseStorageIdLi9ELi3ELi3ELi0EE4rowsEv() #1 comdat align 2 {
  ret i64 3
}

; Function Attrs: mustprogress nounwind ssp uwtable
define linkonce_odr noundef ptr @_ZN5Eigen12DenseStorageIdLi9ELi3ELi3ELi0EE4dataEv(ptr noundef nonnull align 8 dereferenceable(72) %0) #1 comdat align 2 {
  %2 = alloca ptr, align 8
  store ptr %0, ptr %2, align 8, !tbaa !1084
  %3 = load ptr, ptr %2, align 8
  %4 = getelementptr inbounds nuw %"class.Eigen::DenseStorage.221", ptr %3, i32 0, i32 0
  %5 = getelementptr inbounds nuw %"struct.Eigen::internal::plain_array.222", ptr %4, i32 0, i32 0
  %6 = getelementptr inbounds [9 x double], ptr %5, i64 0, i64 0
  ret ptr %6
}

; Function Attrs: mustprogress nounwind ssp uwtable
define linkonce_odr noundef i64 @_ZN5Eigen12DenseStorageIdLi9ELi3ELi3ELi0EE4colsEv() #1 comdat align 2 {
  ret i64 3
}

; Function Attrs: mustprogress ssp uwtable
define linkonce_odr void @_ZN5Eigen12DenseStorageIdLi9ELi3ELi3ELi0EEC2Ev(ptr noundef nonnull align 8 dereferenceable(72) %0) unnamed_addr #3 comdat align 2 {
  %2 = alloca ptr, align 8
  store ptr %0, ptr %2, align 8, !tbaa !1084
  %3 = load ptr, ptr %2, align 8
  %4 = getelementptr inbounds nuw %"class.Eigen::DenseStorage.221", ptr %3, i32 0, i32 0
  call void @_ZN5Eigen8internal11plain_arrayIdLi9ELi0ELi0EEC2Ev(ptr noundef nonnull align 8 dereferenceable(72) %4)
  ret void
}

; Function Attrs: mustprogress ssp uwtable
define linkonce_odr void @_ZN5Eigen10MatrixBaseINS_6MatrixIdLi3ELi3ELi0ELi3ELi3EEEEC2Ev(ptr noundef nonnull align 1 dereferenceable(1) %0) unnamed_addr #3 comdat align 2 {
  %2 = alloca ptr, align 8
  store ptr %0, ptr %2, align 8, !tbaa !1082
  %3 = load ptr, ptr %2, align 8
  call void @_ZN5Eigen9DenseBaseINS_6MatrixIdLi3ELi3ELi0ELi3ELi3EEEEC2Ev(ptr noundef nonnull align 1 dereferenceable(1) %3)
  ret void
}

; Function Attrs: noinline noreturn nounwind ssp uwtable
define linkonce_odr hidden void @__clang_call_terminate(ptr noundef %0) #6 comdat {
  %2 = call ptr @__cxa_begin_catch(ptr %0) #7
  call void @_ZSt9terminatev() #37
  unreachable
}

; Function Attrs: inlinehint mustprogress nounwind ssp uwtable
define linkonce_odr noundef nonnull align 8 dereferenceable(72) ptr @_ZN5Eigen16CommaInitializerINS_6MatrixIdLi3ELi3ELi0ELi3ELi3EEEE8finishedEv(ptr noundef nonnull align 8 dereferenceable(32) %0) #10 comdat align 2 {
  %2 = alloca ptr, align 8
  store ptr %0, ptr %2, align 8, !tbaa !5412
  %3 = load ptr, ptr %2, align 8
  %4 = getelementptr inbounds nuw %"struct.Eigen::CommaInitializer", ptr %3, i32 0, i32 0
  %5 = load ptr, ptr %4, align 8, !tbaa !5416
  ret ptr %5
}

; Function Attrs: inlinehint mustprogress ssp uwtable
define linkonce_odr noundef nonnull align 8 dereferenceable(8) ptr @_ZN5Eigen15PlainObjectBaseINS_6MatrixIdLi3ELi3ELi0ELi3ELi3EEEE8coeffRefEll(ptr noundef nonnull align 8 dereferenceable(72) %0, i64 noundef %1, i64 noundef %2) #4 comdat align 2 {
  %4 = alloca ptr, align 8
  %5 = alloca i64, align 8
  %6 = alloca i64, align 8
  store ptr %0, ptr %4, align 8, !tbaa !1080
  store i64 %1, ptr %5, align 8, !tbaa !80
  store i64 %2, ptr %6, align 8, !tbaa !80
  %7 = load ptr, ptr %4, align 8
  %8 = getelementptr inbounds nuw %"class.Eigen::PlainObjectBase.214", ptr %7, i32 0, i32 0
  %9 = call noundef ptr @_ZN5Eigen12DenseStorageIdLi9ELi3ELi3ELi0EE4dataEv(ptr noundef nonnull align 8 dereferenceable(72) %8)
  %10 = load i64, ptr %5, align 8, !tbaa !80
  %11 = load i64, ptr %6, align 8, !tbaa !80
  %12 = call noundef i64 @_ZN5Eigen12DenseStorageIdLi9ELi3ELi3ELi0EE4rowsEv() #7
  %13 = mul nsw i64 %11, %12
  %14 = add nsw i64 %10, %13
  %15 = getelementptr inbounds double, ptr %9, i64 %14
  ret ptr %15
}

; Function Attrs: inlinehint mustprogress nounwind ssp uwtable
define linkonce_odr noundef i64 @_ZNK5Eigen15PlainObjectBaseINS_6MatrixIdLi3ELi3ELi0ELi3ELi3EEEE4colsEv(ptr noundef nonnull align 8 dereferenceable(72) %0) #10 comdat align 2 {
  %2 = alloca ptr, align 8
  store ptr %0, ptr %2, align 8, !tbaa !1080
  %3 = call noundef i64 @_ZN5Eigen12DenseStorageIdLi9ELi3ELi3ELi0EE4colsEv() #7
  ret i64 %3
}

; Function Attrs: inlinehint mustprogress ssp uwtable
define linkonce_odr void @_ZN5Eigen16CommaInitializerINS_6MatrixIdLi3ELi3ELi0ELi3ELi3EEEEC2ERS2_RKd(ptr noundef nonnull align 8 dereferenceable(32) %0, ptr noundef nonnull align 8 dereferenceable(72) %1, ptr noundef nonnull align 8 dereferenceable(8) %2) unnamed_addr #4 comdat align 2 {
  %4 = alloca ptr, align 8
  %5 = alloca ptr, align 8
  %6 = alloca ptr, align 8
  store ptr %0, ptr %4, align 8, !tbaa !5412
  store ptr %1, ptr %5, align 8, !tbaa !1047
  store ptr %2, ptr %6, align 8, !tbaa !39
  %7 = load ptr, ptr %4, align 8
  %8 = getelementptr inbounds nuw %"struct.Eigen::CommaInitializer", ptr %7, i32 0, i32 0
  %9 = load ptr, ptr %5, align 8, !tbaa !1047
  store ptr %9, ptr %8, align 8, !tbaa !1047
  %10 = getelementptr inbounds nuw %"struct.Eigen::CommaInitializer", ptr %7, i32 0, i32 1
  store i64 0, ptr %10, align 8, !tbaa !5418
  %11 = getelementptr inbounds nuw %"struct.Eigen::CommaInitializer", ptr %7, i32 0, i32 2
  store i64 1, ptr %11, align 8, !tbaa !5414
  %12 = getelementptr inbounds nuw %"struct.Eigen::CommaInitializer", ptr %7, i32 0, i32 3
  store i64 1, ptr %12, align 8, !tbaa !5417
  %13 = load ptr, ptr %6, align 8, !tbaa !39
  %14 = load double, ptr %13, align 8, !tbaa !25
  %15 = getelementptr inbounds nuw %"struct.Eigen::CommaInitializer", ptr %7, i32 0, i32 0
  %16 = load ptr, ptr %15, align 8, !tbaa !5416
  %17 = call noundef nonnull align 8 dereferenceable(8) ptr @_ZN5Eigen15PlainObjectBaseINS_6MatrixIdLi3ELi3ELi0ELi3ELi3EEEE8coeffRefEll(ptr noundef nonnull align 8 dereferenceable(72) %16, i64 noundef 0, i64 noundef 0)
  store double %14, ptr %17, align 8, !tbaa !25
  ret void
}

; Function Attrs: inlinehint mustprogress ssp uwtable
define linkonce_odr void @_ZN5Eigen15PlainObjectBaseINS_6MatrixIdLi3ELi3ELi0ELi3ELi3EEEEC2Ev(ptr noundef nonnull align 8 dereferenceable(72) %0) unnamed_addr #4 comdat align 2 {
  %2 = alloca ptr, align 8
  store ptr %0, ptr %2, align 8, !tbaa !1080
  %3 = load ptr, ptr %2, align 8
  call void @_ZN5Eigen10MatrixBaseINS_6MatrixIdLi3ELi3ELi0ELi3ELi3EEEEC2Ev(ptr noundef nonnull align 1 dereferenceable(1) %3)
  %4 = getelementptr inbounds nuw %"class.Eigen::PlainObjectBase.214", ptr %3, i32 0, i32 0
  call void @_ZN5Eigen12DenseStorageIdLi9ELi3ELi3ELi0EEC2Ev(ptr noundef nonnull align 8 dereferenceable(72) %4)
  ret void
}

; Function Attrs: inlinehint mustprogress nounwind ssp uwtable
define linkonce_odr void @_ZN5Eigen16CommaInitializerINS_6MatrixIdLi3ELi3ELi0ELi3ELi3EEEED2Ev(ptr noundef nonnull align 8 dereferenceable(32) %0) unnamed_addr #10 comdat align 2 personality ptr @__gxx_personality_v0 {
  %2 = alloca ptr, align 8
  store ptr %0, ptr %2, align 8, !tbaa !5412
  %3 = load ptr, ptr %2, align 8
  %4 = invoke noundef nonnull align 8 dereferenceable(72) ptr @_ZN5Eigen16CommaInitializerINS_6MatrixIdLi3ELi3ELi0ELi3ELi3EEEE8finishedEv(ptr noundef nonnull align 8 dereferenceable(32) %3)
          to label %5 unwind label %6

5:                                                ; preds = %1
  ret void

6:                                                ; preds = %1
  %7 = landingpad { ptr, i32 }
          catch ptr null
  %8 = extractvalue { ptr, i32 } %7, 0
  call void @__clang_call_terminate(ptr %8) #37
  unreachable
}

; Function Attrs: mustprogress ssp uwtable
define linkonce_odr noundef nonnull align 8 dereferenceable(32) ptr @_ZN5Eigen16CommaInitializerINS_6MatrixIdLi3ELi3ELi0ELi3ELi3EEEEcmERKd(ptr noundef nonnull align 8 dereferenceable(32) %0, ptr noundef nonnull align 8 dereferenceable(8) %1) #3 comdat align 2 {
  %3 = alloca ptr, align 8
  %4 = alloca ptr, align 8
  store ptr %0, ptr %3, align 8, !tbaa !5412
  store ptr %1, ptr %4, align 8, !tbaa !39
  %5 = load ptr, ptr %3, align 8
  %6 = getelementptr inbounds nuw %"struct.Eigen::CommaInitializer", ptr %5, i32 0, i32 2
  %7 = load i64, ptr %6, align 8, !tbaa !5414
  %8 = getelementptr inbounds nuw %"struct.Eigen::CommaInitializer", ptr %5, i32 0, i32 0
  %9 = load ptr, ptr %8, align 8, !tbaa !5416
  %10 = call noundef i64 @_ZNK5Eigen15PlainObjectBaseINS_6MatrixIdLi3ELi3ELi0ELi3ELi3EEEE4colsEv(ptr noundef nonnull align 8 dereferenceable(72) %9) #7
  %11 = icmp eq i64 %7, %10
  br i1 %11, label %12, label %20

12:                                               ; preds = %2
  %13 = getelementptr inbounds nuw %"struct.Eigen::CommaInitializer", ptr %5, i32 0, i32 3
  %14 = load i64, ptr %13, align 8, !tbaa !5417
  %15 = getelementptr inbounds nuw %"struct.Eigen::CommaInitializer", ptr %5, i32 0, i32 1
  %16 = load i64, ptr %15, align 8, !tbaa !5418
  %17 = add nsw i64 %16, %14
  store i64 %17, ptr %15, align 8, !tbaa !5418
  %18 = getelementptr inbounds nuw %"struct.Eigen::CommaInitializer", ptr %5, i32 0, i32 2
  store i64 0, ptr %18, align 8, !tbaa !5414
  %19 = getelementptr inbounds nuw %"struct.Eigen::CommaInitializer", ptr %5, i32 0, i32 3
  store i64 1, ptr %19, align 8, !tbaa !5417
  br label %20

20:                                               ; preds = %12, %2
  %21 = load ptr, ptr %4, align 8, !tbaa !39
  %22 = load double, ptr %21, align 8, !tbaa !25
  %23 = getelementptr inbounds nuw %"struct.Eigen::CommaInitializer", ptr %5, i32 0, i32 0
  %24 = load ptr, ptr %23, align 8, !tbaa !5416
  %25 = getelementptr inbounds nuw %"struct.Eigen::CommaInitializer", ptr %5, i32 0, i32 1
  %26 = load i64, ptr %25, align 8, !tbaa !5418
  %27 = getelementptr inbounds nuw %"struct.Eigen::CommaInitializer", ptr %5, i32 0, i32 2
  %28 = load i64, ptr %27, align 8, !tbaa !5414
  %29 = add nsw i64 %28, 1
  store i64 %29, ptr %27, align 8, !tbaa !5414
  %30 = call noundef nonnull align 8 dereferenceable(8) ptr @_ZN5Eigen15PlainObjectBaseINS_6MatrixIdLi3ELi3ELi0ELi3ELi3EEEE8coeffRefEll(ptr noundef nonnull align 8 dereferenceable(72) %24, i64 noundef %26, i64 noundef %28)
  store double %22, ptr %30, align 8, !tbaa !25
  ret ptr %5
}

; Function Attrs: inlinehint mustprogress ssp uwtable
define linkonce_odr void @_ZN5Eigen9DenseBaseINS_6MatrixIdLi3ELi3ELi0ELi3ELi3EEEElsERKd(ptr dead_on_unwind noalias writable sret(%"struct.Eigen::CommaInitializer") align 8 %0, ptr noundef nonnull align 1 dereferenceable(1) %1, ptr noundef nonnull align 8 dereferenceable(8) %2) #4 comdat align 2 {
  %4 = alloca ptr, align 8
  %5 = alloca ptr, align 8
  %6 = alloca ptr, align 8
  store ptr %0, ptr %4, align 8
  store ptr %1, ptr %5, align 8, !tbaa !1086
  store ptr %2, ptr %6, align 8, !tbaa !39
  %7 = load ptr, ptr %5, align 8
  %8 = load ptr, ptr %6, align 8, !tbaa !39
  call void @_ZN5Eigen16CommaInitializerINS_6MatrixIdLi3ELi3ELi0ELi3ELi3EEEEC2ERS2_RKd(ptr noundef nonnull align 8 dereferenceable(32) %0, ptr noundef nonnull align 8 dereferenceable(72) %7, ptr noundef nonnull align 8 dereferenceable(8) %8)
  ret void
}

; Function Attrs: inlinehint mustprogress ssp uwtable
define linkonce_odr void @_ZN5Eigen6MatrixIdLi3ELi3ELi0ELi3ELi3EEC2Ev(ptr noundef nonnull align 8 dereferenceable(72) %0) unnamed_addr #4 comdat align 2 {
  %2 = alloca ptr, align 8
  store ptr %0, ptr %2, align 8, !tbaa !1047
  %3 = load ptr, ptr %2, align 8
  call void @_ZN5Eigen15PlainObjectBaseINS_6MatrixIdLi3ELi3ELi0ELi3ELi3EEEEC2Ev(ptr noundef nonnull align 8 dereferenceable(72) %3)
  ret void
}

; Function Attrs: mustprogress ssp uwtable
define void @_ZN6open3d7utility15RotationMatrixXEd(ptr dead_on_unwind noalias writable sret(%"class.Eigen::Matrix.213") align 8 %0, double noundef %1) #3 personality ptr @__gxx_personality_v0 {
  %3 = alloca ptr, align 8
  %4 = alloca double, align 8
  %5 = alloca %"struct.Eigen::CommaInitializer", align 8
  %6 = alloca double, align 8
  %7 = alloca double, align 8
  %8 = alloca ptr, align 8
  %9 = alloca i32, align 4
  %10 = alloca double, align 8
  %11 = alloca double, align 8
  %12 = alloca double, align 8
  %13 = alloca double, align 8
  %14 = alloca double, align 8
  %15 = alloca double, align 8
  %16 = alloca double, align 8
  store ptr %0, ptr %3, align 8
  store double %1, ptr %4, align 8, !tbaa !25
  call void @_ZN5Eigen6MatrixIdLi3ELi3ELi0ELi3ELi3EEC2Ev(ptr noundef nonnull align 8 dereferenceable(72) %0)
  call void @llvm.lifetime.start.p0(i64 32, ptr %5) #7
  call void @llvm.lifetime.start.p0(i64 8, ptr %6) #7
  store double 1.000000e+00, ptr %6, align 8, !tbaa !25
  call void @_ZN5Eigen9DenseBaseINS_6MatrixIdLi3ELi3ELi0ELi3ELi3EEEElsERKd(ptr dead_on_unwind writable sret(%"struct.Eigen::CommaInitializer") align 8 %5, ptr noundef nonnull align 1 dereferenceable(1) %0, ptr noundef nonnull align 8 dereferenceable(8) %6)
  call void @llvm.lifetime.start.p0(i64 8, ptr %7) #7
  store double 0.000000e+00, ptr %7, align 8, !tbaa !25
  %17 = invoke noundef nonnull align 8 dereferenceable(32) ptr @_ZN5Eigen16CommaInitializerINS_6MatrixIdLi3ELi3ELi0ELi3ELi3EEEEcmERKd(ptr noundef nonnull align 8 dereferenceable(32) %5, ptr noundef nonnull align 8 dereferenceable(8) %7)
          to label %18 unwind label %42

18:                                               ; preds = %2
  call void @llvm.lifetime.start.p0(i64 8, ptr %10) #7
  store double 0.000000e+00, ptr %10, align 8, !tbaa !25
  %19 = invoke noundef nonnull align 8 dereferenceable(32) ptr @_ZN5Eigen16CommaInitializerINS_6MatrixIdLi3ELi3ELi0ELi3ELi3EEEEcmERKd(ptr noundef nonnull align 8 dereferenceable(32) %17, ptr noundef nonnull align 8 dereferenceable(8) %10)
          to label %20 unwind label %46

20:                                               ; preds = %18
  call void @llvm.lifetime.start.p0(i64 8, ptr %11) #7
  store double 0.000000e+00, ptr %11, align 8, !tbaa !25
  %21 = invoke noundef nonnull align 8 dereferenceable(32) ptr @_ZN5Eigen16CommaInitializerINS_6MatrixIdLi3ELi3ELi0ELi3ELi3EEEEcmERKd(ptr noundef nonnull align 8 dereferenceable(32) %19, ptr noundef nonnull align 8 dereferenceable(8) %11)
          to label %22 unwind label %50

22:                                               ; preds = %20
  call void @llvm.lifetime.start.p0(i64 8, ptr %12) #7
  %23 = load double, ptr %4, align 8, !tbaa !25
  %24 = call double @cos(double noundef %23) #7, !tbaa !21
  store double %24, ptr %12, align 8, !tbaa !25
  %25 = invoke noundef nonnull align 8 dereferenceable(32) ptr @_ZN5Eigen16CommaInitializerINS_6MatrixIdLi3ELi3ELi0ELi3ELi3EEEEcmERKd(ptr noundef nonnull align 8 dereferenceable(32) %21, ptr noundef nonnull align 8 dereferenceable(8) %12)
          to label %26 unwind label %54

26:                                               ; preds = %22
  call void @llvm.lifetime.start.p0(i64 8, ptr %13) #7
  %27 = load double, ptr %4, align 8, !tbaa !25
  %28 = call double @sin(double noundef %27) #7, !tbaa !21
  %29 = fneg double %28
  store double %29, ptr %13, align 8, !tbaa !25
  %30 = invoke noundef nonnull align 8 dereferenceable(32) ptr @_ZN5Eigen16CommaInitializerINS_6MatrixIdLi3ELi3ELi0ELi3ELi3EEEEcmERKd(ptr noundef nonnull align 8 dereferenceable(32) %25, ptr noundef nonnull align 8 dereferenceable(8) %13)
          to label %31 unwind label %58

31:                                               ; preds = %26
  call void @llvm.lifetime.start.p0(i64 8, ptr %14) #7
  store double 0.000000e+00, ptr %14, align 8, !tbaa !25
  %32 = invoke noundef nonnull align 8 dereferenceable(32) ptr @_ZN5Eigen16CommaInitializerINS_6MatrixIdLi3ELi3ELi0ELi3ELi3EEEEcmERKd(ptr noundef nonnull align 8 dereferenceable(32) %30, ptr noundef nonnull align 8 dereferenceable(8) %14)
          to label %33 unwind label %62

33:                                               ; preds = %31
  call void @llvm.lifetime.start.p0(i64 8, ptr %15) #7
  %34 = load double, ptr %4, align 8, !tbaa !25
  %35 = call double @sin(double noundef %34) #7, !tbaa !21
  store double %35, ptr %15, align 8, !tbaa !25
  %36 = invoke noundef nonnull align 8 dereferenceable(32) ptr @_ZN5Eigen16CommaInitializerINS_6MatrixIdLi3ELi3ELi0ELi3ELi3EEEEcmERKd(ptr noundef nonnull align 8 dereferenceable(32) %32, ptr noundef nonnull align 8 dereferenceable(8) %15)
          to label %37 unwind label %66

37:                                               ; preds = %33
  call void @llvm.lifetime.start.p0(i64 8, ptr %16) #7
  %38 = load double, ptr %4, align 8, !tbaa !25
  %39 = call double @cos(double noundef %38) #7, !tbaa !21
  store double %39, ptr %16, align 8, !tbaa !25
  %40 = invoke noundef nonnull align 8 dereferenceable(32) ptr @_ZN5Eigen16CommaInitializerINS_6MatrixIdLi3ELi3ELi0ELi3ELi3EEEEcmERKd(ptr noundef nonnull align 8 dereferenceable(32) %36, ptr noundef nonnull align 8 dereferenceable(8) %16)
          to label %41 unwind label %70

41:                                               ; preds = %37
  call void @llvm.lifetime.end.p0(i64 8, ptr %16) #7
  call void @llvm.lifetime.end.p0(i64 8, ptr %15) #7
  call void @llvm.lifetime.end.p0(i64 8, ptr %14) #7
  call void @llvm.lifetime.end.p0(i64 8, ptr %13) #7
  call void @llvm.lifetime.end.p0(i64 8, ptr %12) #7
  call void @llvm.lifetime.end.p0(i64 8, ptr %11) #7
  call void @llvm.lifetime.end.p0(i64 8, ptr %10) #7
  call void @llvm.lifetime.end.p0(i64 8, ptr %7) #7
  call void @_ZN5Eigen16CommaInitializerINS_6MatrixIdLi3ELi3ELi0ELi3ELi3EEEED2Ev(ptr noundef nonnull align 8 dereferenceable(32) %5) #7
  call void @llvm.lifetime.end.p0(i64 8, ptr %6) #7
  call void @llvm.lifetime.end.p0(i64 32, ptr %5) #7
  ret void

42:                                               ; preds = %2
  %43 = landingpad { ptr, i32 }
          cleanup
  %44 = extractvalue { ptr, i32 } %43, 0
  store ptr %44, ptr %8, align 8
  %45 = extractvalue { ptr, i32 } %43, 1
  store i32 %45, ptr %9, align 4
  br label %80

46:                                               ; preds = %18
  %47 = landingpad { ptr, i32 }
          cleanup
  %48 = extractvalue { ptr, i32 } %47, 0
  store ptr %48, ptr %8, align 8
  %49 = extractvalue { ptr, i32 } %47, 1
  store i32 %49, ptr %9, align 4
  br label %79

50:                                               ; preds = %20
  %51 = landingpad { ptr, i32 }
          cleanup
  %52 = extractvalue { ptr, i32 } %51, 0
  store ptr %52, ptr %8, align 8
  %53 = extractvalue { ptr, i32 } %51, 1
  store i32 %53, ptr %9, align 4
  br label %78

54:                                               ; preds = %22
  %55 = landingpad { ptr, i32 }
          cleanup
  %56 = extractvalue { ptr, i32 } %55, 0
  store ptr %56, ptr %8, align 8
  %57 = extractvalue { ptr, i32 } %55, 1
  store i32 %57, ptr %9, align 4
  br label %77

58:                                               ; preds = %26
  %59 = landingpad { ptr, i32 }
          cleanup
  %60 = extractvalue { ptr, i32 } %59, 0
  store ptr %60, ptr %8, align 8
  %61 = extractvalue { ptr, i32 } %59, 1
  store i32 %61, ptr %9, align 4
  br label %76

62:                                               ; preds = %31
  %63 = landingpad { ptr, i32 }
          cleanup
  %64 = extractvalue { ptr, i32 } %63, 0
  store ptr %64, ptr %8, align 8
  %65 = extractvalue { ptr, i32 } %63, 1
  store i32 %65, ptr %9, align 4
  br label %75

66:                                               ; preds = %33
  %67 = landingpad { ptr, i32 }
          cleanup
  %68 = extractvalue { ptr, i32 } %67, 0
  store ptr %68, ptr %8, align 8
  %69 = extractvalue { ptr, i32 } %67, 1
  store i32 %69, ptr %9, align 4
  br label %74

70:                                               ; preds = %37
  %71 = landingpad { ptr, i32 }
          cleanup
  %72 = extractvalue { ptr, i32 } %71, 0
  store ptr %72, ptr %8, align 8
  %73 = extractvalue { ptr, i32 } %71, 1
  store i32 %73, ptr %9, align 4
  call void @llvm.lifetime.end.p0(i64 8, ptr %16) #7
  br label %74

74:                                               ; preds = %70, %66
  call void @llvm.lifetime.end.p0(i64 8, ptr %15) #7
  br label %75

75:                                               ; preds = %74, %62
  call void @llvm.lifetime.end.p0(i64 8, ptr %14) #7
  br label %76

76:                                               ; preds = %75, %58
  call void @llvm.lifetime.end.p0(i64 8, ptr %13) #7
  br label %77

77:                                               ; preds = %76, %54
  call void @llvm.lifetime.end.p0(i64 8, ptr %12) #7
  br label %78

78:                                               ; preds = %77, %50
  call void @llvm.lifetime.end.p0(i64 8, ptr %11) #7
  br label %79

79:                                               ; preds = %78, %46
  call void @llvm.lifetime.end.p0(i64 8, ptr %10) #7
  br label %80

80:                                               ; preds = %79, %42
  call void @llvm.lifetime.end.p0(i64 8, ptr %7) #7
  call void @_ZN5Eigen16CommaInitializerINS_6MatrixIdLi3ELi3ELi0ELi3ELi3EEEED2Ev(ptr noundef nonnull align 8 dereferenceable(32) %5) #7
  call void @llvm.lifetime.end.p0(i64 8, ptr %6) #7
  call void @llvm.lifetime.end.p0(i64 32, ptr %5) #7
  br label %81

81:                                               ; preds = %80
  %82 = load ptr, ptr %8, align 8
  %83 = load i32, ptr %9, align 4
  %84 = insertvalue { ptr, i32 } poison, ptr %82, 0
  %85 = insertvalue { ptr, i32 } %84, i32 %83, 1
  resume { ptr, i32 } %85
}