; Function Attrs: mustprogress nofree norecurse nounwind ssp willreturn memory(argmem: write, errnomem: write) uwtable
define void @_ZN6open3d7utility15RotationMatrixXEd(ptr dead_on_unwind noalias writable writeonly sret(%"class.Eigen::Matrix.213") align 8 captures(none) initializes((0, 72)) %0, double noundef %1) local_unnamed_addr #38 personality ptr @__gxx_personality_v0 {
  store double 1.000000e+00, ptr %0, align 8, !tbaa !8, !noalias !1330
  %3 = getelementptr inbounds nuw i8, ptr %0, i64 24
  store double 0.000000e+00, ptr %3, align 8, !tbaa !8
  %4 = getelementptr inbounds nuw i8, ptr %0, i64 48
  store double 0.000000e+00, ptr %4, align 8, !tbaa !8
  %5 = getelementptr inbounds nuw i8, ptr %0, i64 8
  store double 0.000000e+00, ptr %5, align 8, !tbaa !8
  %6 = tail call double @cos(double noundef %1) #5, !tbaa !4
  %7 = getelementptr inbounds nuw i8, ptr %0, i64 32
  store double %6, ptr %7, align 8, !tbaa !8
  %8 = tail call double @sin(double noundef %1) #5, !tbaa !4
  %9 = fneg double %8
  %10 = getelementptr inbounds nuw i8, ptr %0, i64 56
  store double %9, ptr %10, align 8, !tbaa !8
  %11 = getelementptr inbounds nuw i8, ptr %0, i64 16
  store double 0.000000e+00, ptr %11, align 8, !tbaa !8
  %12 = tail call double @sin(double noundef %1) #5, !tbaa !4
  %13 = getelementptr inbounds nuw i8, ptr %0, i64 40
  store double %12, ptr %13, align 8, !tbaa !8
  %14 = tail call double @cos(double noundef %1) #5, !tbaa !4
  %15 = getelementptr inbounds nuw i8, ptr %0, i64 64
  store double %14, ptr %15, align 8, !tbaa !8
  ret void
}